; ModuleID = '10/884.c'
source_filename = "10/884.c"
target datalayout = "e-m:e-p270:32:32-p271:32:32-p272:64:64-i64:64-f80:128-n8:16:32:64-S128"
target triple = "x86_64-pc-linux-gnu"

@.str = private unnamed_addr constant [4 x i8] c"%d\0A\00", align 1
@.str.1 = private unnamed_addr constant [3 x i8] c"%d\00", align 1

; Function Attrs: noinline nounwind uwtable
define dso_local i32 @main() #0 {
  %1 = alloca i32, align 4
  %2 = alloca i32, align 4
  %3 = alloca i32, align 4
  %4 = alloca i32, align 4
  %5 = alloca i32, align 4
  %6 = alloca i32, align 4
  %7 = alloca [25 x i32], align 16
  %8 = alloca [25 x i32], align 16
  store i32 0, i32* %1, align 4
  store i32 0, i32* %5, align 4
  store i32 0, i32* %6, align 4
  %9 = call i32 (i8*, ...) @__isoc99_scanf(i8* getelementptr inbounds ([4 x i8], [4 x i8]* @.str, i64 0, i64 0), i32* %2)
  store i32 0, i32* %3, align 4
  br label %10

10:                                               ; preds = %19, %0
  %11 = load i32, i32* %3, align 4
  %12 = load i32, i32* %2, align 4
  %13 = icmp slt i32 %11, %12
  br i1 %13, label %14, label %22

14:                                               ; preds = %10
  %15 = load i32, i32* %3, align 4
  %16 = sext i32 %15 to i64
  %17 = getelementptr inbounds [25 x i32], [25 x i32]* %7, i64 0, i64 %16
  %18 = call i32 (i8*, ...) @__isoc99_scanf(i8* getelementptr inbounds ([3 x i8], [3 x i8]* @.str.1, i64 0, i64 0), i32* %17)
  br label %19

19:                                               ; preds = %14
  %20 = load i32, i32* %3, align 4
  %21 = add nsw i32 %20, 1
  store i32 %21, i32* %3, align 4
  br label %10

22:                                               ; preds = %10
  store i32 0, i32* %3, align 4
  br label %23

23:                                               ; preds = %31, %22
  %24 = load i32, i32* %3, align 4
  %25 = load i32, i32* %2, align 4
  %26 = icmp slt i32 %24, %25
  br i1 %26, label %27, label %34

27:                                               ; preds = %23
  %28 = load i32, i32* %3, align 4
  %29 = sext i32 %28 to i64
  %30 = getelementptr inbounds [25 x i32], [25 x i32]* %8, i64 0, i64 %29
  store i32 0, i32* %30, align 4
  br label %31

31:                                               ; preds = %27
  %32 = load i32, i32* %3, align 4
  %33 = add nsw i32 %32, 1
  store i32 %33, i32* %3, align 4
  br label %23

34:                                               ; preds = %23
  %35 = load i32, i32* %2, align 4
  %36 = sub nsw i32 %35, 1
  %37 = sext i32 %36 to i64
  %38 = getelementptr inbounds [25 x i32], [25 x i32]* %8, i64 0, i64 %37
  store i32 1, i32* %38, align 4
  %39 = load i32, i32* %2, align 4
  %40 = sub nsw i32 %39, 2
  store i32 %40, i32* %3, align 4
  br label %41

41:                                               ; preds = %95, %34
  %42 = load i32, i32* %3, align 4
  %43 = icmp sge i32 %42, 0
  br i1 %43, label %44, label %98

44:                                               ; preds = %41
  %45 = load i32, i32* %2, align 4
  %46 = sub nsw i32 %45, 1
  store i32 %46, i32* %4, align 4
  br label %47

47:                                               ; preds = %84, %44
  %48 = load i32, i32* %4, align 4
  %49 = load i32, i32* %3, align 4
  %50 = icmp sgt i32 %48, %49
  br i1 %50, label %51, label %87

51:                                               ; preds = %47
  %52 = load i32, i32* %3, align 4
  %53 = sext i32 %52 to i64
  %54 = getelementptr inbounds [25 x i32], [25 x i32]* %7, i64 0, i64 %53
  %55 = load i32, i32* %54, align 4
  %56 = load i32, i32* %4, align 4
  %57 = sext i32 %56 to i64
  %58 = getelementptr inbounds [25 x i32], [25 x i32]* %7, i64 0, i64 %57
  %59 = load i32, i32* %58, align 4
  %60 = icmp sge i32 %55, %59
  br i1 %60, label %61, label %83

61:                                               ; preds = %51
  %62 = load i32, i32* %3, align 4
  %63 = sext i32 %62 to i64
  %64 = getelementptr inbounds [25 x i32], [25 x i32]* %8, i64 0, i64 %63
  %65 = load i32, i32* %64, align 4
  %66 = load i32, i32* %4, align 4
  %67 = sext i32 %66 to i64
  %68 = getelementptr inbounds [25 x i32], [25 x i32]* %8, i64 0, i64 %67
  %69 = load i32, i32* %68, align 4
  %70 = icmp sle i32 %65, %69
  br i1 %70, label %71, label %80

71:                                               ; preds = %61
  %72 = load i32, i32* %4, align 4
  %73 = sext i32 %72 to i64
  %74 = getelementptr inbounds [25 x i32], [25 x i32]* %8, i64 0, i64 %73
  %75 = load i32, i32* %74, align 4
  %76 = add nsw i32 %75, 1
  %77 = load i32, i32* %3, align 4
  %78 = sext i32 %77 to i64
  %79 = getelementptr inbounds [25 x i32], [25 x i32]* %8, i64 0, i64 %78
  store i32 %76, i32* %79, align 4
  br label %80

80:                                               ; preds = %71, %61
  %81 = load i32, i32* %5, align 4
  %82 = add nsw i32 %81, 1
  store i32 %82, i32* %5, align 4
  br label %83

83:                                               ; preds = %80, %51
  br label %84

84:                                               ; preds = %83
  %85 = load i32, i32* %4, align 4
  %86 = add nsw i32 %85, -1
  store i32 %86, i32* %4, align 4
  br label %47

87:                                               ; preds = %47
  %88 = load i32, i32* %5, align 4
  %89 = icmp eq i32 %88, 0
  br i1 %89, label %90, label %94

90:                                               ; preds = %87
  %91 = load i32, i32* %3, align 4
  %92 = sext i32 %91 to i64
  %93 = getelementptr inbounds [25 x i32], [25 x i32]* %8, i64 0, i64 %92
  store i32 1, i32* %93, align 4
  br label %94

94:                                               ; preds = %90, %87
  store i32 0, i32* %5, align 4
  br label %95

95:                                               ; preds = %94
  %96 = load i32, i32* %3, align 4
  %97 = add nsw i32 %96, -1
  store i32 %97, i32* %3, align 4
  br label %41

98:                                               ; preds = %41
  store i32 0, i32* %3, align 4
  br label %99

99:                                               ; preds = %116, %98
  %100 = load i32, i32* %3, align 4
  %101 = load i32, i32* %2, align 4
  %102 = icmp slt i32 %100, %101
  br i1 %102, label %103, label %119

103:                                              ; preds = %99
  %104 = load i32, i32* %3, align 4
  %105 = sext i32 %104 to i64
  %106 = getelementptr inbounds [25 x i32], [25 x i32]* %8, i64 0, i64 %105
  %107 = load i32, i32* %106, align 4
  %108 = load i32, i32* %6, align 4
  %109 = icmp sgt i32 %107, %108
  br i1 %109, label %110, label %115

110:                                              ; preds = %103
  %111 = load i32, i32* %3, align 4
  %112 = sext i32 %111 to i64
  %113 = getelementptr inbounds [25 x i32], [25 x i32]* %8, i64 0, i64 %112
  %114 = load i32, i32* %113, align 4
  store i32 %114, i32* %6, align 4
  br label %115

115:                                              ; preds = %110, %103
  br label %116

116:                                              ; preds = %115
  %117 = load i32, i32* %3, align 4
  %118 = add nsw i32 %117, 1
  store i32 %118, i32* %3, align 4
  br label %99

119:                                              ; preds = %99
  %120 = load i32, i32* %6, align 4
  %121 = call i32 (i8*, ...) @printf(i8* getelementptr inbounds ([3 x i8], [3 x i8]* @.str.1, i64 0, i64 0), i32 %120)
  %122 = load i32, i32* %1, align 4
  ret i32 %122
}

declare dso_local i32 @__isoc99_scanf(i8*, ...) #1

declare dso_local i32 @printf(i8*, ...) #1


!llvm.module.flags = !{!0}
!llvm.ident = !{!1}

!0 = !{i32 1, !"wchar_size", i32 4}
!1 = !{!"clang version 10.0.0-4ubuntu1 "}
