; ModuleID = 'source-C-CXX/9/884.c'
source_filename = "source-C-CXX/9/884.c"
target datalayout = "e-m:e-p270:32:32-p271:32:32-p272:64:64-i64:64-f80:128-n8:16:32:64-S128"
target triple = "x86_64-pc-linux-gnu"

@.str = private unnamed_addr constant [4 x i8] c"%d\0A\00", align 1
@.str.1 = private unnamed_addr constant [3 x i8] c"%d\00", align 1

; Function Attrs: nofree nounwind sspstrong uwtable
define dso_local i32 @main() local_unnamed_addr #0 {
  %1 = alloca i32, align 4
  %2 = alloca [25 x i32], align 16
  %3 = alloca [25 x i32], align 16
  %4 = bitcast [25 x i32]* %3 to i8*
  %5 = bitcast i32* %1 to i8*
  call void @llvm.lifetime.start.p0i8(i64 4, i8* nonnull %5) #5
  %6 = bitcast [25 x i32]* %2 to i8*
  call void @llvm.lifetime.start.p0i8(i64 100, i8* nonnull %6) #5
  call void @llvm.lifetime.start.p0i8(i64 100, i8* nonnull %4) #5
  %7 = call i32 (i8*, ...) @__isoc99_scanf(i8* getelementptr inbounds ([4 x i8], [4 x i8]* @.str, i64 0, i64 0), i32* nonnull %1)
  %8 = load i32, i32* %1, align 4, !tbaa !5
  %9 = icmp sgt i32 %8, 0
  br i1 %9, label %12, label %144

10:                                               ; preds = %12
  %11 = icmp sgt i32 %17, 0
  br i1 %11, label %20, label %144

12:                                               ; preds = %0, %12
  %13 = phi i64 [ %16, %12 ], [ 0, %0 ]
  %14 = getelementptr inbounds [25 x i32], [25 x i32]* %2, i64 0, i64 %13
  %15 = call i32 (i8*, ...) @__isoc99_scanf(i8* getelementptr inbounds ([3 x i8], [3 x i8]* @.str.1, i64 0, i64 0), i32* nonnull %14)
  %16 = add nuw nsw i64 %13, 1
  %17 = load i32, i32* %1, align 4, !tbaa !5
  %18 = sext i32 %17 to i64
  %19 = icmp slt i64 %16, %18
  br i1 %19, label %12, label %10, !llvm.loop !9

20:                                               ; preds = %10
  %21 = zext i32 %17 to i64
  %22 = shl nuw nsw i64 %21, 2
  call void @llvm.memset.p0i8.i64(i8* nonnull align 16 %4, i8 0, i64 %22, i1 false)
  %23 = add nsw i32 %17, -1
  %24 = zext i32 %23 to i64
  %25 = getelementptr inbounds [25 x i32], [25 x i32]* %3, i64 0, i64 %24
  store i32 1, i32* %25, align 4, !tbaa !5
  %26 = icmp eq i32 %17, 1
  br i1 %26, label %40, label %27

27:                                               ; preds = %20
  %28 = zext i32 %17 to i64
  %29 = add nsw i64 %28, -1
  %30 = add nsw i32 %17, -2
  %31 = zext i32 %30 to i64
  br label %32

32:                                               ; preds = %27, %132
  %33 = phi i64 [ %31, %27 ], [ %133, %132 ]
  %34 = getelementptr inbounds [25 x i32], [25 x i32]* %3, i64 0, i64 %33
  %35 = icmp slt i64 %33, %24
  br i1 %35, label %36, label %131

36:                                               ; preds = %32
  %37 = getelementptr inbounds [25 x i32], [25 x i32]* %2, i64 0, i64 %33
  %38 = load i32, i32* %37, align 4, !tbaa !5
  br label %110

39:                                               ; preds = %132
  br i1 %11, label %40, label %149

40:                                               ; preds = %20, %39
  %41 = phi i32 [ %17, %39 ], [ 1, %20 ]
  %42 = zext i32 %41 to i64
  %43 = icmp ult i32 %41, 8
  br i1 %43, label %107, label %44

44:                                               ; preds = %40
  %45 = and i64 %42, 4294967288
  %46 = add nsw i64 %45, -8
  %47 = lshr exact i64 %46, 3
  %48 = add nuw nsw i64 %47, 1
  %49 = and i64 %48, 1
  %50 = icmp eq i64 %46, 0
  br i1 %50, label %82, label %51

51:                                               ; preds = %44
  %52 = and i64 %48, 4611686018427387902
  br label %53

53:                                               ; preds = %53, %51
  %54 = phi i64 [ 0, %51 ], [ %79, %53 ]
  %55 = phi <4 x i32> [ zeroinitializer, %51 ], [ %77, %53 ]
  %56 = phi <4 x i32> [ zeroinitializer, %51 ], [ %78, %53 ]
  %57 = phi i64 [ %52, %51 ], [ %80, %53 ]
  %58 = getelementptr inbounds [25 x i32], [25 x i32]* %3, i64 0, i64 %54
  %59 = bitcast i32* %58 to <4 x i32>*
  %60 = load <4 x i32>, <4 x i32>* %59, align 16, !tbaa !5
  %61 = getelementptr inbounds i32, i32* %58, i64 4
  %62 = bitcast i32* %61 to <4 x i32>*
  %63 = load <4 x i32>, <4 x i32>* %62, align 16, !tbaa !5
  %64 = icmp sgt <4 x i32> %60, %55
  %65 = icmp sgt <4 x i32> %63, %56
  %66 = select <4 x i1> %64, <4 x i32> %60, <4 x i32> %55
  %67 = select <4 x i1> %65, <4 x i32> %63, <4 x i32> %56
  %68 = or i64 %54, 8
  %69 = getelementptr inbounds [25 x i32], [25 x i32]* %3, i64 0, i64 %68
  %70 = bitcast i32* %69 to <4 x i32>*
  %71 = load <4 x i32>, <4 x i32>* %70, align 16, !tbaa !5
  %72 = getelementptr inbounds i32, i32* %69, i64 4
  %73 = bitcast i32* %72 to <4 x i32>*
  %74 = load <4 x i32>, <4 x i32>* %73, align 16, !tbaa !5
  %75 = icmp sgt <4 x i32> %71, %66
  %76 = icmp sgt <4 x i32> %74, %67
  %77 = select <4 x i1> %75, <4 x i32> %71, <4 x i32> %66
  %78 = select <4 x i1> %76, <4 x i32> %74, <4 x i32> %67
  %79 = add nuw i64 %54, 16
  %80 = add i64 %57, -2
  %81 = icmp eq i64 %80, 0
  br i1 %81, label %82, label %53, !llvm.loop !11

82:                                               ; preds = %53, %44
  %83 = phi <4 x i32> [ undef, %44 ], [ %77, %53 ]
  %84 = phi <4 x i32> [ undef, %44 ], [ %78, %53 ]
  %85 = phi i64 [ 0, %44 ], [ %79, %53 ]
  %86 = phi <4 x i32> [ zeroinitializer, %44 ], [ %77, %53 ]
  %87 = phi <4 x i32> [ zeroinitializer, %44 ], [ %78, %53 ]
  %88 = icmp eq i64 %49, 0
  br i1 %88, label %100, label %89

89:                                               ; preds = %82
  %90 = getelementptr inbounds [25 x i32], [25 x i32]* %3, i64 0, i64 %85
  %91 = bitcast i32* %90 to <4 x i32>*
  %92 = load <4 x i32>, <4 x i32>* %91, align 16, !tbaa !5
  %93 = getelementptr inbounds i32, i32* %90, i64 4
  %94 = bitcast i32* %93 to <4 x i32>*
  %95 = load <4 x i32>, <4 x i32>* %94, align 16, !tbaa !5
  %96 = icmp sgt <4 x i32> %95, %87
  %97 = select <4 x i1> %96, <4 x i32> %95, <4 x i32> %87
  %98 = icmp sgt <4 x i32> %92, %86
  %99 = select <4 x i1> %98, <4 x i32> %92, <4 x i32> %86
  br label %100

100:                                              ; preds = %82, %89
  %101 = phi <4 x i32> [ %83, %82 ], [ %99, %89 ]
  %102 = phi <4 x i32> [ %84, %82 ], [ %97, %89 ]
  %103 = icmp sgt <4 x i32> %101, %102
  %104 = select <4 x i1> %103, <4 x i32> %101, <4 x i32> %102
  %105 = call i32 @llvm.vector.reduce.smax.v4i32(<4 x i32> %104)
  %106 = icmp eq i64 %45, %42
  br i1 %106, label %149, label %107

107:                                              ; preds = %40, %100
  %108 = phi i64 [ 0, %40 ], [ %45, %100 ]
  %109 = phi i32 [ 0, %40 ], [ %105, %100 ]
  br label %135

110:                                              ; preds = %36, %125
  %111 = phi i64 [ %29, %36 ], [ %127, %125 ]
  %112 = phi i32 [ 0, %36 ], [ %126, %125 ]
  %113 = getelementptr inbounds [25 x i32], [25 x i32]* %2, i64 0, i64 %111
  %114 = load i32, i32* %113, align 4, !tbaa !5
  %115 = icmp slt i32 %38, %114
  br i1 %115, label %125, label %116

116:                                              ; preds = %110
  %117 = load i32, i32* %34, align 4, !tbaa !5
  %118 = getelementptr inbounds [25 x i32], [25 x i32]* %3, i64 0, i64 %111
  %119 = load i32, i32* %118, align 4, !tbaa !5
  %120 = icmp sgt i32 %117, %119
  br i1 %120, label %123, label %121

121:                                              ; preds = %116
  %122 = add nsw i32 %119, 1
  store i32 %122, i32* %34, align 4, !tbaa !5
  br label %123

123:                                              ; preds = %121, %116
  %124 = add nsw i32 %112, 1
  br label %125

125:                                              ; preds = %110, %123
  %126 = phi i32 [ %124, %123 ], [ %112, %110 ]
  %127 = add nsw i64 %111, -1
  %128 = icmp sgt i64 %127, %33
  br i1 %128, label %110, label %129, !llvm.loop !13

129:                                              ; preds = %125
  %130 = icmp eq i32 %126, 0
  br i1 %130, label %131, label %132

131:                                              ; preds = %32, %129
  store i32 1, i32* %34, align 4, !tbaa !5
  br label %132

132:                                              ; preds = %131, %129
  %133 = add nsw i64 %33, -1
  %134 = icmp sgt i64 %33, 0
  br i1 %134, label %32, label %39, !llvm.loop !14

135:                                              ; preds = %107, %135
  %136 = phi i64 [ %142, %135 ], [ %108, %107 ]
  %137 = phi i32 [ %141, %135 ], [ %109, %107 ]
  %138 = getelementptr inbounds [25 x i32], [25 x i32]* %3, i64 0, i64 %136
  %139 = load i32, i32* %138, align 4, !tbaa !5
  %140 = icmp sgt i32 %139, %137
  %141 = select i1 %140, i32 %139, i32 %137
  %142 = add nuw nsw i64 %136, 1
  %143 = icmp eq i64 %142, %42
  br i1 %143, label %149, label %135, !llvm.loop !15

144:                                              ; preds = %0, %10
  %145 = phi i32 [ %17, %10 ], [ %8, %0 ]
  %146 = add nsw i32 %145, -1
  %147 = sext i32 %146 to i64
  %148 = getelementptr inbounds [25 x i32], [25 x i32]* %3, i64 0, i64 %147
  store i32 1, i32* %148, align 4, !tbaa !5
  br label %149

149:                                              ; preds = %135, %100, %144, %39
  %150 = phi i32 [ 0, %39 ], [ 0, %144 ], [ %105, %100 ], [ %141, %135 ]
  %151 = call i32 (i8*, ...) @printf(i8* nonnull dereferenceable(1) getelementptr inbounds ([3 x i8], [3 x i8]* @.str.1, i64 0, i64 0), i32 %150)
  call void @llvm.lifetime.end.p0i8(i64 100, i8* nonnull %4) #5
  call void @llvm.lifetime.end.p0i8(i64 100, i8* nonnull %6) #5
  call void @llvm.lifetime.end.p0i8(i64 4, i8* nonnull %5) #5
  ret i32 0
}

; Function Attrs: argmemonly mustprogress nofree nosync nounwind willreturn
declare void @llvm.lifetime.start.p0i8(i64 immarg, i8* nocapture) #1

; Function Attrs: nofree nounwind
declare noundef i32 @__isoc99_scanf(i8* nocapture noundef readonly, ...) local_unnamed_addr #2

; Function Attrs: nofree nounwind
declare noundef i32 @printf(i8* nocapture noundef readonly, ...) local_unnamed_addr #2

; Function Attrs: argmemonly mustprogress nofree nosync nounwind willreturn
declare void @llvm.lifetime.end.p0i8(i64 immarg, i8* nocapture) #1

; Function Attrs: argmemonly nofree nounwind willreturn writeonly
declare void @llvm.memset.p0i8.i64(i8* nocapture writeonly, i8, i64, i1 immarg) #3

; Function Attrs: nofree nosync nounwind readnone willreturn
declare i32 @llvm.vector.reduce.smax.v4i32(<4 x i32>) #4


!llvm.module.flags = !{!0, !1, !2, !3}
!llvm.ident = !{!4}

!0 = !{i32 1, !"wchar_size", i32 4}
!1 = !{i32 7, !"PIC Level", i32 2}
!2 = !{i32 7, !"PIE Level", i32 2}
!3 = !{i32 7, !"uwtable", i32 1}
!4 = !{!"clang version 13.0.0"}
!5 = !{!6, !6, i64 0}
!6 = !{!"int", !7, i64 0}
!7 = !{!"omnipotent char", !8, i64 0}
!8 = !{!"Simple C/C++ TBAA"}
!9 = distinct !{!9, !10}
!10 = !{!"llvm.loop.mustprogress"}
!11 = distinct !{!11, !10, !12}
!12 = !{!"llvm.loop.isvectorized", i32 1}
!13 = distinct !{!13, !10}
!14 = distinct !{!14, !10}
!15 = distinct !{!15, !10, !16, !12}
!16 = !{!"llvm.loop.unroll.runtime.disable"}
